(lp0
cnumpy.core.multiarray
scalar
p1
(cnumpy
dtype
p2
(S'f8'
p3
I0
I1
tp4
Rp5
(I3
S'<'
p6
NNNI-1
I-1
I0
tp7
bS'c\x99?\xd5:2\xa2?'
p8
tp9
Rp10
ag10
ag10
ag1
(g5
S'c\x99?\xd5:2\xa2?'
p11
tp12
Rp13
ag1
(g5
S'c\x99?\xd5:2\xa2?'
p14
tp15
Rp16
ag1
(g5
S'c\x99?\xd5:2\xa2?'
p17
tp18
Rp19
ag1
(g5
S'c\x99?\xd5:2\xa2?'
p20
tp21
Rp22
ag1
(g5
S'c\x99?\xd5:2\xa2?'
p23
tp24
Rp25
ag1
(g5
S'c\x99?\xd5:2\xa2?'
p26
tp27
Rp28
ag1
(g5
S'c\x99?\xd5:2\xa2?'
p29
tp30
Rp31
ag1
(g5
S'c\x99?\xd5:2\xa2?'
p32
tp33
Rp34
ag1
(g5
S'c\x99?\xd5:2\xa2?'
p35
tp36
Rp37
ag1
(g5
S'c\x99?\xd5:2\xa2?'
p38
tp39
Rp40
ag1
(g5
S'c\x99?\xd5:2\xa2?'
p41
tp42
Rp43
ag1
(g5
S'c\x99?\xd5:2\xa2?'
p44
tp45
Rp46
ag1
(g5
S'\x8c\x87?2h\xfa\xa3?'
p47
tp48
Rp49
a.